; Function Attrs: mustprogress uwtable
define dso_local void @_ZN5Image6resizeERKN9Imath_3_23BoxINS0_4Vec2IiEEEE(ptr noundef nonnull align 8 dereferenceable(64) initializes((0, 16)) %0, ptr noundef nonnull readonly align 4 captures(none) dereferenceable(16) %1) local_unnamed_addr #10 align 2 {
  %3 = load i32, ptr %1, align 4, !tbaa !21
  store i32 %3, ptr %0, align 8, !tbaa !21
  %4 = getelementptr inbounds nuw i8, ptr %1, i64 4
  %5 = load i32, ptr %4, align 4, !tbaa !24
  %6 = getelementptr inbounds nuw i8, ptr %0, i64 4
  store i32 %5, ptr %6, align 4, !tbaa !24
  %7 = getelementptr inbounds nuw i8, ptr %0, i64 8
  %8 = getelementptr inbounds nuw i8, ptr %1, i64 8
  %9 = load i32, ptr %8, align 4, !tbaa !21
  store i32 %9, ptr %7, align 8, !tbaa !21
  %10 = getelementptr inbounds nuw i8, ptr %1, i64 12
  %11 = load i32, ptr %10, align 4, !tbaa !24
  %12 = getelementptr inbounds nuw i8, ptr %0, i64 12
  store i32 %11, ptr %12, align 4, !tbaa !24
  %13 = getelementptr inbounds nuw i8, ptr %0, i64 40
  %14 = load ptr, ptr %13, align 8, !tbaa !18
  %15 = getelementptr inbounds nuw i8, ptr %0, i64 24
  %.not5 = icmp eq ptr %14, %15
  br i1 %.not5, label %._crit_edge, label %.lr.ph

._crit_edge:                                      ; preds = %.lr.ph, %2
  ret void

.lr.ph:                                           ; preds = %2, %.lr.ph
  %.sroa.02.06 = phi ptr [ %21, %.lr.ph ], [ %14, %2 ]
  %16 = getelementptr inbounds nuw i8, ptr %.sroa.02.06, i64 64
  %17 = load ptr, ptr %16, align 8, !tbaa !25
  %18 = load ptr, ptr %17, align 8, !tbaa !4
  %19 = getelementptr inbounds nuw i8, ptr %18, i64 32
  %20 = load ptr, ptr %19, align 8
  tail call void %20(ptr noundef nonnull align 8 dereferenceable(16) %17)
  %21 = tail call noundef ptr @_ZSt18_Rb_tree_incrementPSt18_Rb_tree_node_base(ptr noundef %.sroa.02.06) #26
  %.not = icmp eq ptr %21, %15
  br i1 %.not, label %._crit_edge, label %.lr.ph, !llvm.loop !33
}